target datalayout = "e-m:e-p270:32:32-p271:32:32-p272:64:64-i64:64-i128:128-f80:128-n8:16:32:64-S128"
target triple = "x86_64-pc-linux-gnu"

%"class.pxrInternal_v0_24__pxrReserved__::GfMatrix3f" = type { %"class.pxrInternal_v0_24__pxrReserved__::GfMatrixData" }
%"class.pxrInternal_v0_24__pxrReserved__::GfMatrixData" = type { [9 x float] }
%"struct.std::_Vector_base" = type { %"struct.std::_Vector_base<std::vector<double>, std::allocator<std::vector<double>>>::_Vector_impl" }
%"struct.std::_Vector_base<std::vector<double>, std::allocator<std::vector<double>>>::_Vector_impl" = type { %"struct.std::_Vector_base<std::vector<double>, std::allocator<std::vector<double>>>::_Vector_impl_data" }
%"struct.std::_Vector_base<std::vector<double>, std::allocator<std::vector<double>>>::_Vector_impl_data" = type { ptr, ptr, ptr }
%"class.std::vector.1" = type { %"struct.std::_Vector_base.2" }
%"struct.std::_Vector_base.2" = type { %"struct.std::_Vector_base<double, std::allocator<double>>::_Vector_impl" }
%"struct.std::_Vector_base<double, std::allocator<double>>::_Vector_impl" = type { %"struct.std::_Vector_base<double, std::allocator<double>>::_Vector_impl_data" }
%"struct.std::_Vector_base<double, std::allocator<double>>::_Vector_impl_data" = type { ptr, ptr, ptr }

; Function Attrs: mustprogress nounwind uwtable
define linkonce_odr noundef ptr @_ZN32pxrInternal_v0_24__pxrReserved__12GfMatrixDataIfLi3ELi3EEixEi(ptr noundef nonnull align 4 dereferenceable(36) %0, i32 noundef %1) #2 comdat align 2 {
  %3 = alloca ptr, align 8
  %4 = alloca i32, align 4
  store ptr %0, ptr %3, align 8
  store i32 %1, ptr %4, align 4
  %5 = load ptr, ptr %3, align 8
  %6 = getelementptr inbounds nuw %"class.pxrInternal_v0_24__pxrReserved__::GfMatrixData", ptr %5, i32 0, i32 0
  %7 = getelementptr inbounds [9 x float], ptr %6, i64 0, i64 0
  %8 = load i32, ptr %4, align 4
  %9 = mul nsw i32 %8, 3
  %10 = sext i32 %9 to i64
  %11 = getelementptr inbounds float, ptr %7, i64 %10
  ret ptr %11
}

; Function Attrs: mustprogress uwtable
define linkonce_odr noundef nonnull align 4 dereferenceable(36) ptr @_ZN32pxrInternal_v0_24__pxrReserved__10GfMatrix3f3SetEPA3_Kf(ptr noundef nonnull align 4 dereferenceable(36) %0, ptr noundef %1) #0 comdat align 2 {
  %3 = alloca ptr, align 8
  %4 = alloca ptr, align 8
  store ptr %0, ptr %3, align 8
  store ptr %1, ptr %4, align 8
  %5 = load ptr, ptr %3, align 8
  %6 = load ptr, ptr %4, align 8
  %7 = getelementptr inbounds [3 x float], ptr %6, i64 0
  %8 = getelementptr inbounds [3 x float], ptr %7, i64 0, i64 0
  %9 = load float, ptr %8, align 4
  %10 = getelementptr inbounds nuw %"class.pxrInternal_v0_24__pxrReserved__::GfMatrix3f", ptr %5, i32 0, i32 0
  %11 = call noundef ptr @_ZN32pxrInternal_v0_24__pxrReserved__12GfMatrixDataIfLi3ELi3EEixEi(ptr noundef nonnull align 4 dereferenceable(36) %10, i32 noundef 0)
  %12 = getelementptr inbounds float, ptr %11, i64 0
  store float %9, ptr %12, align 4
  %13 = load ptr, ptr %4, align 8
  %14 = getelementptr inbounds [3 x float], ptr %13, i64 0
  %15 = getelementptr inbounds [3 x float], ptr %14, i64 0, i64 1
  %16 = load float, ptr %15, align 4
  %17 = getelementptr inbounds nuw %"class.pxrInternal_v0_24__pxrReserved__::GfMatrix3f", ptr %5, i32 0, i32 0
  %18 = call noundef ptr @_ZN32pxrInternal_v0_24__pxrReserved__12GfMatrixDataIfLi3ELi3EEixEi(ptr noundef nonnull align 4 dereferenceable(36) %17, i32 noundef 0)
  %19 = getelementptr inbounds float, ptr %18, i64 1
  store float %16, ptr %19, align 4
  %20 = load ptr, ptr %4, align 8
  %21 = getelementptr inbounds [3 x float], ptr %20, i64 0
  %22 = getelementptr inbounds [3 x float], ptr %21, i64 0, i64 2
  %23 = load float, ptr %22, align 4
  %24 = getelementptr inbounds nuw %"class.pxrInternal_v0_24__pxrReserved__::GfMatrix3f", ptr %5, i32 0, i32 0
  %25 = call noundef ptr @_ZN32pxrInternal_v0_24__pxrReserved__12GfMatrixDataIfLi3ELi3EEixEi(ptr noundef nonnull align 4 dereferenceable(36) %24, i32 noundef 0)
  %26 = getelementptr inbounds float, ptr %25, i64 2
  store float %23, ptr %26, align 4
  %27 = load ptr, ptr %4, align 8
  %28 = getelementptr inbounds [3 x float], ptr %27, i64 1
  %29 = getelementptr inbounds [3 x float], ptr %28, i64 0, i64 0
  %30 = load float, ptr %29, align 4
  %31 = getelementptr inbounds nuw %"class.pxrInternal_v0_24__pxrReserved__::GfMatrix3f", ptr %5, i32 0, i32 0
  %32 = call noundef ptr @_ZN32pxrInternal_v0_24__pxrReserved__12GfMatrixDataIfLi3ELi3EEixEi(ptr noundef nonnull align 4 dereferenceable(36) %31, i32 noundef 1)
  %33 = getelementptr inbounds float, ptr %32, i64 0
  store float %30, ptr %33, align 4
  %34 = load ptr, ptr %4, align 8
  %35 = getelementptr inbounds [3 x float], ptr %34, i64 1
  %36 = getelementptr inbounds [3 x float], ptr %35, i64 0, i64 1
  %37 = load float, ptr %36, align 4
  %38 = getelementptr inbounds nuw %"class.pxrInternal_v0_24__pxrReserved__::GfMatrix3f", ptr %5, i32 0, i32 0
  %39 = call noundef ptr @_ZN32pxrInternal_v0_24__pxrReserved__12GfMatrixDataIfLi3ELi3EEixEi(ptr noundef nonnull align 4 dereferenceable(36) %38, i32 noundef 1)
  %40 = getelementptr inbounds float, ptr %39, i64 1
  store float %37, ptr %40, align 4
  %41 = load ptr, ptr %4, align 8
  %42 = getelementptr inbounds [3 x float], ptr %41, i64 1
  %43 = getelementptr inbounds [3 x float], ptr %42, i64 0, i64 2
  %44 = load float, ptr %43, align 4
  %45 = getelementptr inbounds nuw %"class.pxrInternal_v0_24__pxrReserved__::GfMatrix3f", ptr %5, i32 0, i32 0
  %46 = call noundef ptr @_ZN32pxrInternal_v0_24__pxrReserved__12GfMatrixDataIfLi3ELi3EEixEi(ptr noundef nonnull align 4 dereferenceable(36) %45, i32 noundef 1)
  %47 = getelementptr inbounds float, ptr %46, i64 2
  store float %44, ptr %47, align 4
  %48 = load ptr, ptr %4, align 8
  %49 = getelementptr inbounds [3 x float], ptr %48, i64 2
  %50 = getelementptr inbounds [3 x float], ptr %49, i64 0, i64 0
  %51 = load float, ptr %50, align 4
  %52 = getelementptr inbounds nuw %"class.pxrInternal_v0_24__pxrReserved__::GfMatrix3f", ptr %5, i32 0, i32 0
  %53 = call noundef ptr @_ZN32pxrInternal_v0_24__pxrReserved__12GfMatrixDataIfLi3ELi3EEixEi(ptr noundef nonnull align 4 dereferenceable(36) %52, i32 noundef 2)
  %54 = getelementptr inbounds float, ptr %53, i64 0
  store float %51, ptr %54, align 4
  %55 = load ptr, ptr %4, align 8
  %56 = getelementptr inbounds [3 x float], ptr %55, i64 2
  %57 = getelementptr inbounds [3 x float], ptr %56, i64 0, i64 1
  %58 = load float, ptr %57, align 4
  %59 = getelementptr inbounds nuw %"class.pxrInternal_v0_24__pxrReserved__::GfMatrix3f", ptr %5, i32 0, i32 0
  %60 = call noundef ptr @_ZN32pxrInternal_v0_24__pxrReserved__12GfMatrixDataIfLi3ELi3EEixEi(ptr noundef nonnull align 4 dereferenceable(36) %59, i32 noundef 2)
  %61 = getelementptr inbounds float, ptr %60, i64 1
  store float %58, ptr %61, align 4
  %62 = load ptr, ptr %4, align 8
  %63 = getelementptr inbounds [3 x float], ptr %62, i64 2
  %64 = getelementptr inbounds [3 x float], ptr %63, i64 0, i64 2
  %65 = load float, ptr %64, align 4
  %66 = getelementptr inbounds nuw %"class.pxrInternal_v0_24__pxrReserved__::GfMatrix3f", ptr %5, i32 0, i32 0
  %67 = call noundef ptr @_ZN32pxrInternal_v0_24__pxrReserved__12GfMatrixDataIfLi3ELi3EEixEi(ptr noundef nonnull align 4 dereferenceable(36) %66, i32 noundef 2)
  %68 = getelementptr inbounds float, ptr %67, i64 2
  store float %65, ptr %68, align 4
  ret ptr %5
}

; Function Attrs: mustprogress nounwind uwtable
define linkonce_odr noundef nonnull align 8 dereferenceable(8) ptr @_ZNKSt6vectorIdSaIdEEixEm(ptr noundef nonnull align 8 dereferenceable(24) %0, i64 noundef %1) #2 comdat align 2 {
  %3 = alloca ptr, align 8
  %4 = alloca i64, align 8
  store ptr %0, ptr %3, align 8
  store i64 %1, ptr %4, align 8
  %5 = load ptr, ptr %3, align 8
  %6 = getelementptr inbounds nuw %"struct.std::_Vector_base.2", ptr %5, i32 0, i32 0
  %7 = getelementptr inbounds nuw %"struct.std::_Vector_base<double, std::allocator<double>>::_Vector_impl_data", ptr %6, i32 0, i32 0
  %8 = load ptr, ptr %7, align 8
  %9 = load i64, ptr %4, align 8
  %10 = getelementptr inbounds double, ptr %8, i64 %9
  ret ptr %10
}

; Function Attrs: mustprogress nounwind uwtable
define linkonce_odr noundef i64 @_ZNKSt6vectorIdSaIdEE4sizeEv(ptr noundef nonnull align 8 dereferenceable(24) %0) #2 comdat align 2 {
  %2 = alloca ptr, align 8
  store ptr %0, ptr %2, align 8
  %3 = load ptr, ptr %2, align 8
  %4 = getelementptr inbounds nuw %"struct.std::_Vector_base.2", ptr %3, i32 0, i32 0
  %5 = getelementptr inbounds nuw %"struct.std::_Vector_base<double, std::allocator<double>>::_Vector_impl_data", ptr %4, i32 0, i32 1
  %6 = load ptr, ptr %5, align 8
  %7 = getelementptr inbounds nuw %"struct.std::_Vector_base.2", ptr %3, i32 0, i32 0
  %8 = getelementptr inbounds nuw %"struct.std::_Vector_base<double, std::allocator<double>>::_Vector_impl_data", ptr %7, i32 0, i32 0
  %9 = load ptr, ptr %8, align 8
  %10 = ptrtoint ptr %6 to i64
  %11 = ptrtoint ptr %9 to i64
  %12 = sub i64 %10, %11
  %13 = sdiv exact i64 %12, 8
  ret i64 %13
}

; Function Attrs: mustprogress nounwind uwtable
define linkonce_odr noundef nonnull align 8 dereferenceable(24) ptr @_ZNKSt6vectorIS_IdSaIdEESaIS1_EEixEm(ptr noundef nonnull align 8 dereferenceable(24) %0, i64 noundef %1) #2 comdat align 2 {
  %3 = alloca ptr, align 8
  %4 = alloca i64, align 8
  store ptr %0, ptr %3, align 8
  store i64 %1, ptr %4, align 8
  %5 = load ptr, ptr %3, align 8
  %6 = getelementptr inbounds nuw %"struct.std::_Vector_base", ptr %5, i32 0, i32 0
  %7 = getelementptr inbounds nuw %"struct.std::_Vector_base<std::vector<double>, std::allocator<std::vector<double>>>::_Vector_impl_data", ptr %6, i32 0, i32 0
  %8 = load ptr, ptr %7, align 8
  %9 = load i64, ptr %4, align 8
  %10 = getelementptr inbounds %"class.std::vector.1", ptr %8, i64 %9
  ret ptr %10
}

; Function Attrs: mustprogress nounwind uwtable
define linkonce_odr noundef i64 @_ZNKSt6vectorIS_IdSaIdEESaIS1_EE4sizeEv(ptr noundef nonnull align 8 dereferenceable(24) %0) #2 comdat align 2 {
  %2 = alloca ptr, align 8
  store ptr %0, ptr %2, align 8
  %3 = load ptr, ptr %2, align 8
  %4 = getelementptr inbounds nuw %"struct.std::_Vector_base", ptr %3, i32 0, i32 0
  %5 = getelementptr inbounds nuw %"struct.std::_Vector_base<std::vector<double>, std::allocator<std::vector<double>>>::_Vector_impl_data", ptr %4, i32 0, i32 1
  %6 = load ptr, ptr %5, align 8
  %7 = getelementptr inbounds nuw %"struct.std::_Vector_base", ptr %3, i32 0, i32 0
  %8 = getelementptr inbounds nuw %"struct.std::_Vector_base<std::vector<double>, std::allocator<std::vector<double>>>::_Vector_impl_data", ptr %7, i32 0, i32 0
  %9 = load ptr, ptr %8, align 8
  %10 = ptrtoint ptr %6 to i64
  %11 = ptrtoint ptr %9 to i64
  %12 = sub i64 %10, %11
  %13 = sdiv exact i64 %12, 24
  ret i64 %13
}

; Function Attrs: mustprogress uwtable
define void @_ZN32pxrInternal_v0_24__pxrReserved__10GfMatrix3fC2ERKSt6vectorIS1_IdSaIdEESaIS3_EE(ptr noundef nonnull align 4 dereferenceable(36) %0, ptr noundef nonnull align 8 dereferenceable(24) %1) unnamed_addr #0 align 2 {
  %3 = alloca ptr, align 8
  %4 = alloca ptr, align 8
  %5 = alloca [3 x [3 x float]], align 16
  %6 = alloca i64, align 8
  %7 = alloca i64, align 8
  store ptr %0, ptr %3, align 8
  store ptr %1, ptr %4, align 8
  %8 = load ptr, ptr %3, align 8
  call void @llvm.memset.p0.i64(ptr align 16 %5, i8 0, i64 36, i1 false)
  %9 = getelementptr inbounds [3 x [3 x float]], ptr %5, i32 0, i32 0
  %10 = getelementptr inbounds [3 x float], ptr %9, i32 0, i32 0
  store float 1.000000e+00, ptr %10, align 16
  %11 = getelementptr inbounds [3 x [3 x float]], ptr %5, i32 0, i32 1
  %12 = getelementptr inbounds [3 x float], ptr %11, i32 0, i32 1
  store float 1.000000e+00, ptr %12, align 4
  %13 = getelementptr inbounds [3 x [3 x float]], ptr %5, i32 0, i32 2
  %14 = getelementptr inbounds [3 x float], ptr %13, i32 0, i32 2
  store float 1.000000e+00, ptr %14, align 8
  store i64 0, ptr %6, align 8
  br label %15

15:                                               ; preds = %54, %2
  %16 = load i64, ptr %6, align 8
  %17 = icmp ult i64 %16, 3
  br i1 %17, label %18, label %23

18:                                               ; preds = %15
  %19 = load i64, ptr %6, align 8
  %20 = load ptr, ptr %4, align 8
  %21 = call noundef i64 @_ZNKSt6vectorIS_IdSaIdEESaIS1_EE4sizeEv(ptr noundef nonnull align 8 dereferenceable(24) %20) #7
  %22 = icmp ult i64 %19, %21
  br label %23

23:                                               ; preds = %18, %15
  %24 = phi i1 [ false, %15 ], [ %22, %18 ]
  br i1 %24, label %25, label %57

25:                                               ; preds = %23
  store i64 0, ptr %7, align 8
  br label %26

26:                                               ; preds = %50, %25
  %27 = load i64, ptr %7, align 8
  %28 = icmp ult i64 %27, 3
  br i1 %28, label %29, label %36

29:                                               ; preds = %26
  %30 = load i64, ptr %7, align 8
  %31 = load ptr, ptr %4, align 8
  %32 = load i64, ptr %6, align 8
  %33 = call noundef nonnull align 8 dereferenceable(24) ptr @_ZNKSt6vectorIS_IdSaIdEESaIS1_EEixEm(ptr noundef nonnull align 8 dereferenceable(24) %31, i64 noundef %32) #7
  %34 = call noundef i64 @_ZNKSt6vectorIdSaIdEE4sizeEv(ptr noundef nonnull align 8 dereferenceable(24) %33) #7
  %35 = icmp ult i64 %30, %34
  br label %36

36:                                               ; preds = %29, %26
  %37 = phi i1 [ false, %26 ], [ %35, %29 ]
  br i1 %37, label %38, label %53

38:                                               ; preds = %36
  %39 = load ptr, ptr %4, align 8
  %40 = load i64, ptr %6, align 8
  %41 = call noundef nonnull align 8 dereferenceable(24) ptr @_ZNKSt6vectorIS_IdSaIdEESaIS1_EEixEm(ptr noundef nonnull align 8 dereferenceable(24) %39, i64 noundef %40) #7
  %42 = load i64, ptr %7, align 8
  %43 = call noundef nonnull align 8 dereferenceable(8) ptr @_ZNKSt6vectorIdSaIdEEixEm(ptr noundef nonnull align 8 dereferenceable(24) %41, i64 noundef %42) #7
  %44 = load double, ptr %43, align 8
  %45 = fptrunc double %44 to float
  %46 = load i64, ptr %6, align 8
  %47 = getelementptr inbounds [3 x [3 x float]], ptr %5, i64 0, i64 %46
  %48 = load i64, ptr %7, align 8
  %49 = getelementptr inbounds [3 x float], ptr %47, i64 0, i64 %48
  store float %45, ptr %49, align 4
  br label %50

50:                                               ; preds = %38
  %51 = load i64, ptr %7, align 8
  %52 = add i64 %51, 1
  store i64 %52, ptr %7, align 8
  br label %26, !llvm.loop !4

53:                                               ; preds = %36
  br label %54

54:                                               ; preds = %53
  %55 = load i64, ptr %6, align 8
  %56 = add i64 %55, 1
  store i64 %56, ptr %6, align 8
  br label %15, !llvm.loop !6

57:                                               ; preds = %23
  %58 = getelementptr inbounds [3 x [3 x float]], ptr %5, i64 0, i64 0
  %59 = call noundef nonnull align 4 dereferenceable(36) ptr @_ZN32pxrInternal_v0_24__pxrReserved__10GfMatrix3f3SetEPA3_Kf(ptr noundef nonnull align 4 dereferenceable(36) %8, ptr noundef %58)
  ret void
}