; Function Attrs: mustprogress nofree norecurse nosync nounwind memory(read, argmem: readwrite, inaccessiblemem: none) uwtable
define void @_ZN32pxrInternal_v0_24__pxrReserved__10GfMatrix3fC2ERKSt6vectorIS1_IdSaIdEESaIS3_EE(ptr nocapture noundef nonnull writeonly align 4 dereferenceable(36) %0, ptr nocapture noundef nonnull readonly align 8 dereferenceable(24) %1) unnamed_addr #3 align 2 {
  %3 = alloca [3 x [3 x float]], align 16
  call void @llvm.memset.p0.i64(ptr noundef nonnull align 16 dereferenceable(36) %3, i8 0, i64 32, i1 false)
  store float 1.000000e+00, ptr %3, align 16
  %4 = getelementptr inbounds i8, ptr %3, i64 16
  store float 1.000000e+00, ptr %4, align 16
  %5 = getelementptr inbounds i8, ptr %3, i64 32
  store float 1.000000e+00, ptr %5, align 16
  %6 = getelementptr inbounds nuw i8, ptr %1, i64 8
  %7 = load ptr, ptr %6, align 8
  %8 = load ptr, ptr %1, align 8
  %9 = ptrtoint ptr %7 to i64
  %10 = ptrtoint ptr %8 to i64
  %11 = sub i64 %9, %10
  %12 = sdiv exact i64 %11, 24
  br label %13

13:                                               ; preds = %2, %.critedge2
  %.01618 = phi i64 [ 0, %2 ], [ %29, %.critedge2 ]
  %exitcond20.not = icmp eq i64 %.01618, %12
  br i1 %exitcond20.not, label %.critedge, label %.preheader

.preheader:                                       ; preds = %13
  %14 = getelementptr inbounds %"class.std::vector.1", ptr %8, i64 %.01618
  %15 = getelementptr inbounds nuw i8, ptr %14, i64 8
  %16 = load ptr, ptr %15, align 8
  %17 = load ptr, ptr %14, align 8
  %18 = ptrtoint ptr %16 to i64
  %19 = ptrtoint ptr %17 to i64
  %20 = sub i64 %18, %19
  %21 = ashr exact i64 %20, 3
  br label %22

22:                                               ; preds = %.preheader, %23
  %.017 = phi i64 [ 0, %.preheader ], [ %28, %23 ]
  %exitcond.not = icmp eq i64 %.017, %21
  br i1 %exitcond.not, label %.critedge2, label %23

23:                                               ; preds = %22
  %24 = getelementptr inbounds double, ptr %17, i64 %.017
  %25 = load double, ptr %24, align 8
  %26 = fptrunc double %25 to float
  %27 = getelementptr inbounds [3 x [3 x float]], ptr %3, i64 0, i64 %.01618, i64 %.017
  store float %26, ptr %27, align 4
  %28 = add nuw nsw i64 %.017, 1
  %exitcond19.not = icmp eq i64 %28, 3
  br i1 %exitcond19.not, label %.critedge2, label %22, !llvm.loop !4

.critedge2:                                       ; preds = %22, %23
  %29 = add nuw nsw i64 %.01618, 1
  %exitcond21.not = icmp eq i64 %29, 3
  br i1 %exitcond21.not, label %.critedge, label %13, !llvm.loop !6

.critedge:                                        ; preds = %.critedge2, %13
  %30 = load float, ptr %3, align 16
  store float %30, ptr %0, align 4
  %31 = getelementptr inbounds i8, ptr %3, i64 4
  %32 = load float, ptr %31, align 4
  %33 = getelementptr inbounds i8, ptr %0, i64 4
  store float %32, ptr %33, align 4
  %34 = getelementptr inbounds i8, ptr %3, i64 8
  %35 = load float, ptr %34, align 8
  %36 = getelementptr inbounds i8, ptr %0, i64 8
  store float %35, ptr %36, align 4
  %37 = getelementptr inbounds i8, ptr %3, i64 12
  %38 = load float, ptr %37, align 4
  %39 = getelementptr inbounds i8, ptr %0, i64 12
  store float %38, ptr %39, align 4
  %40 = load float, ptr %4, align 16
  %41 = getelementptr inbounds i8, ptr %0, i64 16
  store float %40, ptr %41, align 4
  %42 = getelementptr inbounds i8, ptr %3, i64 20
  %43 = load float, ptr %42, align 4
  %44 = getelementptr inbounds i8, ptr %0, i64 20
  store float %43, ptr %44, align 4
  %45 = getelementptr inbounds i8, ptr %3, i64 24
  %46 = load float, ptr %45, align 8
  %47 = getelementptr inbounds i8, ptr %0, i64 24
  store float %46, ptr %47, align 4
  %48 = getelementptr inbounds i8, ptr %3, i64 28
  %49 = load float, ptr %48, align 4
  %50 = getelementptr inbounds i8, ptr %0, i64 28
  store float %49, ptr %50, align 4
  %51 = load float, ptr %5, align 16
  %52 = getelementptr inbounds i8, ptr %0, i64 32
  store float %51, ptr %52, align 4
  ret void
}